(dp1
S'PRP$'
p2
I33
sS'VBG'
p3
I13
sS'VBD'
p4
I6
sS'VBN'
p5
I22
sS'POS'
p6
I15
sS"''"
p7
I25
sS'VBP'
p8
I18
sS'WDT'
p9
I8
sS'JJ'
p10
I0
sS'WP'
p11
I36
sS'VBZ'
p12
I23
sS'DT'
p13
I3
sS'#'
I43
sS'RP'
p14
I30
sS'$'
I27
sS'NN'
p15
I7
sS'FW'
p16
I38
sS','
I12
sS'.'
I16
sS'TO'
p17
I14
sS'PRP'
p18
I31
sS'RB'
p19
I21
sS'-LRB-'
p20
I19
sS':'
I32
sS'NNS'
p21
I1
sS'NNP'
p22
I4
sS'``'
p23
I24
sS'WRB'
p24
I11
sS'CC'
p25
I5
sS'LS'
p26
I39
sS'PDT'
p27
I34
sS'RBS'
p28
I35
sS'RBR'
p29
I26
sS'CD'
p30
I28
sS'EX'
p31
I41
sS'IN'
p32
I2
sS'WP$'
p33
I17
sS'MD'
p34
I9
sS'NNPS'
p35
I42
sS'-RRB-'
p36
I20
sS'JJS'
p37
I37
sS'JJR'
p38
I29
sS'SYM'
p39
I44
sS'VB'
p40
I10
sS'UH'
p41
I40
s.