(dp1
S'PRP$'
p2
I34
sS'VBG'
p3
I14
sS'VBD'
p4
I7
sS'VBN'
p5
I23
sS'POS'
p6
I16
sS"''"
p7
I26
sS'VBP'
p8
I19
sS'WDT'
p9
I9
sS'JJ'
p10
I1
sS'WP'
p11
I37
sS'VBZ'
p12
I24
sS'DT'
p13
I4
sS'#'
I44
sS'RP'
p14
I31
sS'$'
I28
sS'NN'
p15
I8
sS'FW'
p16
I39
sS','
I13
sS'.'
I17
sS'TO'
p17
I15
sS'PRP'
p18
I32
sS'RB'
p19
I22
sS'-LRB-'
p20
I20
sS':'
I33
sS'NNS'
p21
I2
sS'NNP'
p22
I5
sS'``'
p23
I25
sS'WRB'
p24
I12
sS'CC'
p25
I6
sS'LS'
p26
I40
sS'PDT'
p27
I35
sS'RBS'
p28
I36
sS'RBR'
p29
I27
sS'CD'
p30
I29
sS'EX'
p31
I42
sS'IN'
p32
I3
sS'WP$'
p33
I18
sS'MD'
p34
I10
sS'NNPS'
p35
I43
sS'-RRB-'
p36
I21
sS'JJS'
p37
I38
sS'JJR'
p38
I30
sS'SYM'
p39
I45
sS'VB'
p40
I11
sS'UH'
p41
I41
s.